; Function Attrs: mustprogress nounwind uwtable
define dso_local void @_ZNK4llvm3opt3Arg5printERNS_11raw_ostreamE(ptr noundef nonnull align 8 dereferenceable(88) %0, ptr noundef nonnull align 8 dereferenceable(48) %1) local_unnamed_addr #0 align 2 {
  %3 = getelementptr inbounds nuw i8, ptr %1, i64 24
  %4 = load ptr, ptr %3, align 8
  %5 = getelementptr inbounds nuw i8, ptr %1, i64 32
  %6 = load ptr, ptr %5, align 8
  %7 = ptrtoint ptr %4 to i64
  %8 = ptrtoint ptr %6 to i64
  %9 = sub i64 %7, %8
  %10 = icmp ult i64 %9, 5
  br i1 %10, label %11, label %13

11:                                               ; preds = %2
  %12 = tail call noundef nonnull align 8 dereferenceable(48) ptr @_ZN4llvm11raw_ostream5writeEPKcm(ptr noundef nonnull align 8 dereferenceable(48) %1, ptr noundef nonnull @.str, i64 noundef 5) #9
  br label %_ZN4llvm11raw_ostreamlsEPKc.exit

13:                                               ; preds = %2
  tail call void @llvm.memcpy.p0.p0.i64(ptr noundef nonnull align 1 dereferenceable(5) %6, ptr noundef nonnull align 1 dereferenceable(5) @.str, i64 5, i1 false)
  %14 = load ptr, ptr %5, align 8
  %15 = getelementptr inbounds i8, ptr %14, i64 5
  store ptr %15, ptr %5, align 8
  br label %_ZN4llvm11raw_ostreamlsEPKc.exit

_ZN4llvm11raw_ostreamlsEPKc.exit:                 ; preds = %11, %13
  tail call void @_ZNK4llvm3opt6Option5printERNS_11raw_ostreamEb(ptr noundef nonnull align 8 dereferenceable(16) %0, ptr noundef nonnull align 8 dereferenceable(48) %1, i1 noundef zeroext false) #9
  %16 = load ptr, ptr %3, align 8
  %17 = load ptr, ptr %5, align 8
  %18 = ptrtoint ptr %16 to i64
  %19 = ptrtoint ptr %17 to i64
  %20 = sub i64 %18, %19
  %21 = icmp ult i64 %20, 7
  br i1 %21, label %22, label %24

22:                                               ; preds = %_ZN4llvm11raw_ostreamlsEPKc.exit
  %23 = tail call noundef nonnull align 8 dereferenceable(48) ptr @_ZN4llvm11raw_ostream5writeEPKcm(ptr noundef nonnull align 8 dereferenceable(48) %1, ptr noundef nonnull @.str.1, i64 noundef 7) #9
  br label %_ZN4llvm11raw_ostreamlsEPKc.exit15

24:                                               ; preds = %_ZN4llvm11raw_ostreamlsEPKc.exit
  tail call void @llvm.memcpy.p0.p0.i64(ptr noundef nonnull align 1 dereferenceable(7) %17, ptr noundef nonnull align 1 dereferenceable(7) @.str.1, i64 7, i1 false)
  %25 = load ptr, ptr %5, align 8
  %26 = getelementptr inbounds i8, ptr %25, i64 7
  store ptr %26, ptr %5, align 8
  br label %_ZN4llvm11raw_ostreamlsEPKc.exit15

_ZN4llvm11raw_ostreamlsEPKc.exit15:               ; preds = %22, %24
  %.0.i.i14 = phi ptr [ %23, %22 ], [ %1, %24 ]
  %27 = getelementptr inbounds nuw i8, ptr %0, i64 40
  %28 = load i32, ptr %27, align 8
  %29 = zext i32 %28 to i64
  %30 = tail call noundef nonnull align 8 dereferenceable(48) ptr @_ZN4llvm11raw_ostreamlsEm(ptr noundef nonnull align 8 dereferenceable(48) %.0.i.i14, i64 noundef %29) #9
  %31 = load ptr, ptr %3, align 8
  %32 = load ptr, ptr %5, align 8
  %33 = ptrtoint ptr %31 to i64
  %34 = ptrtoint ptr %32 to i64
  %35 = sub i64 %33, %34
  %36 = icmp ult i64 %35, 10
  br i1 %36, label %37, label %39

37:                                               ; preds = %_ZN4llvm11raw_ostreamlsEPKc.exit15
  %38 = tail call noundef nonnull align 8 dereferenceable(48) ptr @_ZN4llvm11raw_ostream5writeEPKcm(ptr noundef nonnull align 8 dereferenceable(48) %1, ptr noundef nonnull @.str.2, i64 noundef 10) #9
  br label %_ZN4llvm11raw_ostreamlsEPKc.exit18

39:                                               ; preds = %_ZN4llvm11raw_ostreamlsEPKc.exit15
  tail call void @llvm.memcpy.p0.p0.i64(ptr noundef nonnull align 1 dereferenceable(10) %32, ptr noundef nonnull align 1 dereferenceable(10) @.str.2, i64 10, i1 false)
  %40 = load ptr, ptr %5, align 8
  %41 = getelementptr inbounds i8, ptr %40, i64 10
  store ptr %41, ptr %5, align 8
  br label %_ZN4llvm11raw_ostreamlsEPKc.exit18

_ZN4llvm11raw_ostreamlsEPKc.exit18:               ; preds = %37, %39
  %42 = getelementptr inbounds nuw i8, ptr %0, i64 48
  %43 = tail call noundef i64 @_ZNK4llvm15SmallVectorBaseIjE4sizeEv(ptr noundef nonnull align 8 dereferenceable(16) %42) #9
  %44 = and i64 %43, 4294967295
  %.not36 = icmp eq i64 %44, 0
  br i1 %.not36, label %._crit_edge, label %.lr.ph.preheader

.lr.ph.preheader:                                 ; preds = %_ZN4llvm11raw_ostreamlsEPKc.exit18
  %45 = and i64 %43, 4294967295
  br label %.lr.ph

.lr.ph:                                           ; preds = %.lr.ph.preheader, %_ZN4llvm11raw_ostreamlsEPKc.exit31
  %indvars.iv = phi i64 [ 0, %.lr.ph.preheader ], [ %indvars.iv.next, %_ZN4llvm11raw_ostreamlsEPKc.exit31 ]
  %.not12 = icmp eq i64 %indvars.iv, 0
  %.pre39 = load ptr, ptr %5, align 8
  br i1 %.not12, label %_ZN4llvm11raw_ostreamlsEPKc.exit21, label %46

46:                                               ; preds = %.lr.ph
  %47 = load ptr, ptr %3, align 8
  %48 = ptrtoint ptr %47 to i64
  %49 = ptrtoint ptr %.pre39 to i64
  %50 = sub i64 %48, %49
  %51 = icmp ult i64 %50, 2
  br i1 %51, label %52, label %54

52:                                               ; preds = %46
  %53 = tail call noundef nonnull align 8 dereferenceable(48) ptr @_ZN4llvm11raw_ostream5writeEPKcm(ptr noundef nonnull align 8 dereferenceable(48) %1, ptr noundef nonnull @.str.3, i64 noundef 2) #9
  %.pre = load ptr, ptr %5, align 8
  br label %_ZN4llvm11raw_ostreamlsEPKc.exit21

54:                                               ; preds = %46
  store i16 8236, ptr %.pre39, align 1
  %55 = load ptr, ptr %5, align 8
  %56 = getelementptr inbounds i8, ptr %55, i64 2
  store ptr %56, ptr %5, align 8
  br label %_ZN4llvm11raw_ostreamlsEPKc.exit21

_ZN4llvm11raw_ostreamlsEPKc.exit21:               ; preds = %54, %52, %.lr.ph
  %57 = phi ptr [ %56, %54 ], [ %.pre, %52 ], [ %.pre39, %.lr.ph ]
  %58 = load ptr, ptr %3, align 8
  %59 = icmp eq ptr %58, %57
  br i1 %59, label %60, label %62

60:                                               ; preds = %_ZN4llvm11raw_ostreamlsEPKc.exit21
  %61 = tail call noundef nonnull align 8 dereferenceable(48) ptr @_ZN4llvm11raw_ostream5writeEPKcm(ptr noundef nonnull align 8 dereferenceable(48) %1, ptr noundef nonnull @.str.4, i64 noundef 1) #9
  br label %_ZN4llvm11raw_ostreamlsEPKc.exit24

62:                                               ; preds = %_ZN4llvm11raw_ostreamlsEPKc.exit21
  store i8 39, ptr %57, align 1
  %63 = load ptr, ptr %5, align 8
  %64 = getelementptr inbounds i8, ptr %63, i64 1
  store ptr %64, ptr %5, align 8
  br label %_ZN4llvm11raw_ostreamlsEPKc.exit24

_ZN4llvm11raw_ostreamlsEPKc.exit24:               ; preds = %60, %62
  %.0.i.i23 = phi ptr [ %61, %60 ], [ %1, %62 ]
  %65 = load ptr, ptr %42, align 8
  %66 = getelementptr inbounds ptr, ptr %65, i64 %indvars.iv
  %67 = load ptr, ptr %66, align 8
  %.not.i.i = icmp eq ptr %67, null
  br i1 %.not.i.i, label %_ZN4llvm11raw_ostreamlsEPKc.exit27, label %_ZN4llvm9StringRefC2EPKc.exit.i

_ZN4llvm9StringRefC2EPKc.exit.i:                  ; preds = %_ZN4llvm11raw_ostreamlsEPKc.exit24
  %68 = tail call noundef i64 @strlen(ptr noundef nonnull dereferenceable(1) %67) #9
  %69 = getelementptr inbounds nuw i8, ptr %.0.i.i23, i64 24
  %70 = load ptr, ptr %69, align 8
  %71 = getelementptr inbounds nuw i8, ptr %.0.i.i23, i64 32
  %72 = load ptr, ptr %71, align 8
  %73 = ptrtoint ptr %70 to i64
  %74 = ptrtoint ptr %72 to i64
  %75 = sub i64 %73, %74
  %76 = icmp ugt i64 %68, %75
  br i1 %76, label %77, label %79

77:                                               ; preds = %_ZN4llvm9StringRefC2EPKc.exit.i
  %78 = tail call noundef nonnull align 8 dereferenceable(48) ptr @_ZN4llvm11raw_ostream5writeEPKcm(ptr noundef nonnull align 8 dereferenceable(48) %.0.i.i23, ptr noundef nonnull %67, i64 noundef %68) #9
  br label %_ZN4llvm11raw_ostreamlsEPKc.exit27

79:                                               ; preds = %_ZN4llvm9StringRefC2EPKc.exit.i
  %.not.i2.i25 = icmp eq i64 %68, 0
  br i1 %.not.i2.i25, label %_ZN4llvm11raw_ostreamlsEPKc.exit27, label %80

80:                                               ; preds = %79
  tail call void @llvm.memcpy.p0.p0.i64(ptr align 1 %72, ptr nonnull align 1 %67, i64 %68, i1 false)
  %81 = load ptr, ptr %71, align 8
  %82 = getelementptr inbounds i8, ptr %81, i64 %68
  store ptr %82, ptr %71, align 8
  br label %_ZN4llvm11raw_ostreamlsEPKc.exit27

_ZN4llvm11raw_ostreamlsEPKc.exit27:               ; preds = %_ZN4llvm11raw_ostreamlsEPKc.exit24, %77, %79, %80
  %.0.i.i26 = phi ptr [ %78, %77 ], [ %.0.i.i23, %80 ], [ %.0.i.i23, %79 ], [ %.0.i.i23, %_ZN4llvm11raw_ostreamlsEPKc.exit24 ]
  %83 = getelementptr inbounds nuw i8, ptr %.0.i.i26, i64 24
  %84 = load ptr, ptr %83, align 8
  %85 = getelementptr inbounds nuw i8, ptr %.0.i.i26, i64 32
  %86 = load ptr, ptr %85, align 8
  %87 = icmp eq ptr %84, %86
  br i1 %87, label %88, label %90

88:                                               ; preds = %_ZN4llvm11raw_ostreamlsEPKc.exit27
  %89 = tail call noundef nonnull align 8 dereferenceable(48) ptr @_ZN4llvm11raw_ostream5writeEPKcm(ptr noundef nonnull align 8 dereferenceable(48) %.0.i.i26, ptr noundef nonnull @.str.4, i64 noundef 1) #9
  br label %_ZN4llvm11raw_ostreamlsEPKc.exit31

90:                                               ; preds = %_ZN4llvm11raw_ostreamlsEPKc.exit27
  store i8 39, ptr %86, align 1
  %91 = load ptr, ptr %85, align 8
  %92 = getelementptr inbounds i8, ptr %91, i64 1
  store ptr %92, ptr %85, align 8
  br label %_ZN4llvm11raw_ostreamlsEPKc.exit31

_ZN4llvm11raw_ostreamlsEPKc.exit31:               ; preds = %88, %90
  %indvars.iv.next = add nuw nsw i64 %indvars.iv, 1
  %.not = icmp eq i64 %indvars.iv.next, %45
  br i1 %.not, label %._crit_edge, label %.lr.ph, !llvm.loop !6

._crit_edge:                                      ; preds = %_ZN4llvm11raw_ostreamlsEPKc.exit31, %_ZN4llvm11raw_ostreamlsEPKc.exit18
  %93 = load ptr, ptr %3, align 8
  %94 = load ptr, ptr %5, align 8
  %95 = ptrtoint ptr %93 to i64
  %96 = ptrtoint ptr %94 to i64
  %97 = sub i64 %95, %96
  %98 = icmp ult i64 %97, 3
  br i1 %98, label %99, label %101

99:                                               ; preds = %._crit_edge
  %100 = tail call noundef nonnull align 8 dereferenceable(48) ptr @_ZN4llvm11raw_ostream5writeEPKcm(ptr noundef nonnull align 8 dereferenceable(48) %1, ptr noundef nonnull @.str.5, i64 noundef 3) #9
  br label %_ZN4llvm11raw_ostreamlsEPKc.exit35

101:                                              ; preds = %._crit_edge
  tail call void @llvm.memcpy.p0.p0.i64(ptr noundef nonnull align 1 dereferenceable(3) %94, ptr noundef nonnull align 1 dereferenceable(3) @.str.5, i64 3, i1 false)
  %102 = load ptr, ptr %5, align 8
  %103 = getelementptr inbounds i8, ptr %102, i64 3
  store ptr %103, ptr %5, align 8
  br label %_ZN4llvm11raw_ostreamlsEPKc.exit35

_ZN4llvm11raw_ostreamlsEPKc.exit35:               ; preds = %99, %101
  ret void
}